; Function Attrs: mustprogress nounwind uwtable
define dso_local noundef ptr @_ZN5clang10ExportDecl6CreateERNS_10ASTContextEPNS_11DeclContextENS_14SourceLocationE(ptr noundef nonnull align 8 dereferenceable(23096) %0, ptr noundef %1, i32 %2) local_unnamed_addr #2 align 2 {
  %4 = tail call noundef ptr @_ZN5clang4DeclnwEmRKNS_10ASTContextEPNS_11DeclContextEm(i64 noundef 80, ptr noundef nonnull align 8 dereferenceable(23096) %0, ptr noundef %1, i64 noundef 0) #27
  tail call void @_ZN5clang4DeclC2ENS0_4KindEPNS_11DeclContextENS_14SourceLocationE(ptr noundef nonnull align 8 dereferenceable(33) %4, i32 noundef 5, ptr noundef %1, i32 %2)
  %5 = getelementptr inbounds i8, ptr %4, i64 40
  tail call void @_ZN5clang11DeclContextC2ENS_4Decl4KindE(ptr noundef nonnull align 8 dereferenceable(32) %5, i32 noundef 5) #27
  store ptr getelementptr inbounds inrange(-16, 88) (i8, ptr @_ZTVN5clang10ExportDeclE, i64 16), ptr %4, align 8
  %6 = getelementptr inbounds nuw i8, ptr %4, i64 72
  store i32 0, ptr %6, align 4
  ret ptr %4
}